target datalayout = "e-m:e-p270:32:32-p271:32:32-p272:64:64-i64:64-i128:128-f80:128-n8:16:32:64-S128"
target triple = "x86_64-pc-linux-gnu"

%struct.If_DsdMan_t_ = type { ptr, i32, i32, i32, i32, ptr, ptr, %struct.Vec_Ptr_t_, %struct.Vec_Int_t_, %struct.Vec_Int_t_, ptr, ptr, ptr, [16 x ptr], [16 x ptr], [16 x ptr], [16 x ptr], i32, i32, ptr, ptr, ptr, ptr, ptr, i32, i32, i32, i32, i64, i64, i64, i64, i64 }
%struct.Vec_Ptr_t_ = type { i32, i32, ptr }
%struct.Vec_Int_t_ = type { i32, i32, ptr }
%struct.If_DsdObj_t_ = type { i32, i32, [0 x i32] }

; Function Attrs: inlinehint nounwind uwtable
define internal ptr @Vec_PtrEntry(ptr noundef %0, i32 noundef %1) #1 {
  %3 = alloca ptr, align 8
  %4 = alloca i32, align 4
  store ptr %0, ptr %3, align 8, !tbaa !22
  store i32 %1, ptr %4, align 4, !tbaa !27
  %5 = load ptr, ptr %3, align 8, !tbaa !22
  %6 = getelementptr inbounds nuw %struct.Vec_Ptr_t_, ptr %5, i32 0, i32 2
  %7 = load ptr, ptr %6, align 8, !tbaa !46
  %8 = load i32, ptr %4, align 4, !tbaa !27
  %9 = sext i32 %8 to i64
  %10 = getelementptr inbounds ptr, ptr %7, i64 %9
  %11 = load ptr, ptr %10, align 8, !tbaa !44
  ret ptr %11
}

; Function Attrs: inlinehint nounwind uwtable
define internal i32 @Vec_PtrSize(ptr noundef %0) #1 {
  %2 = alloca ptr, align 8
  store ptr %0, ptr %2, align 8, !tbaa !22
  %3 = load ptr, ptr %2, align 8, !tbaa !22
  %4 = getelementptr inbounds nuw %struct.Vec_Ptr_t_, ptr %3, i32 0, i32 1
  %5 = load i32, ptr %4, align 4, !tbaa !24
  ret i32 %5
}

; Function Attrs: nounwind uwtable
define void @If_DsdManInvertMarks(ptr noundef %0, i32 noundef %1) #0 {
  %3 = alloca ptr, align 8
  %4 = alloca i32, align 4
  %5 = alloca ptr, align 8
  %6 = alloca i32, align 4
  store ptr %0, ptr %3, align 8, !tbaa !3
  store i32 %1, ptr %4, align 4, !tbaa !27
  call void @llvm.lifetime.start.p0(i64 8, ptr %5) #15
  call void @llvm.lifetime.start.p0(i64 4, ptr %6) #15
  %7 = load ptr, ptr %3, align 8, !tbaa !3
  %8 = getelementptr inbounds nuw %struct.If_DsdMan_t_, ptr %7, i32 0, i32 23
  %9 = load ptr, ptr %8, align 8, !tbaa !38
  %10 = icmp ne ptr %9, null
  br i1 %10, label %11, label %17

11:                                               ; preds = %2
  %12 = load ptr, ptr %3, align 8, !tbaa !3
  %13 = getelementptr inbounds nuw %struct.If_DsdMan_t_, ptr %12, i32 0, i32 23
  %14 = load ptr, ptr %13, align 8, !tbaa !38
  call void @free(ptr noundef %14) #15
  %15 = load ptr, ptr %3, align 8, !tbaa !3
  %16 = getelementptr inbounds nuw %struct.If_DsdMan_t_, ptr %15, i32 0, i32 23
  store ptr null, ptr %16, align 8, !tbaa !38
  br label %18

17:                                               ; preds = %2
  br label %18

18:                                               ; preds = %17, %11
  store i32 0, ptr %6, align 4, !tbaa !27
  br label %19

19:                                               ; preds = %48, %18
  %20 = load i32, ptr %6, align 4, !tbaa !27
  %21 = load ptr, ptr %3, align 8, !tbaa !3
  %22 = getelementptr inbounds nuw %struct.If_DsdMan_t_, ptr %21, i32 0, i32 7
  %23 = call i32 @Vec_PtrSize(ptr noundef %22)
  %24 = icmp slt i32 %20, %23
  br i1 %24, label %25, label %30

25:                                               ; preds = %19
  %26 = load ptr, ptr %3, align 8, !tbaa !3
  %27 = getelementptr inbounds nuw %struct.If_DsdMan_t_, ptr %26, i32 0, i32 7
  %28 = load i32, ptr %6, align 4, !tbaa !27
  %29 = call ptr @Vec_PtrEntry(ptr noundef %27, i32 noundef %28)
  store ptr %29, ptr %5, align 8, !tbaa !40
  br label %30

30:                                               ; preds = %25, %19
  %31 = phi i1 [ false, %19 ], [ true, %25 ]
  br i1 %31, label %32, label %51

32:                                               ; preds = %30
  %33 = load ptr, ptr %5, align 8, !tbaa !40
  %34 = getelementptr inbounds nuw %struct.If_DsdObj_t_, ptr %33, i32 0, i32 1
  %35 = load i32, ptr %34, align 4
  %36 = lshr i32 %35, 8
  %37 = and i32 %36, 1
  %38 = icmp ne i32 %37, 0
  %39 = xor i1 %38, true
  %40 = zext i1 %39 to i32
  %41 = load ptr, ptr %5, align 8, !tbaa !40
  %42 = getelementptr inbounds nuw %struct.If_DsdObj_t_, ptr %41, i32 0, i32 1
  %43 = load i32, ptr %42, align 4
  %44 = and i32 %40, 1
  %45 = shl i32 %44, 8
  %46 = and i32 %43, -257
  %47 = or i32 %46, %45
  store i32 %47, ptr %42, align 4
  br label %48

48:                                               ; preds = %32
  %49 = load i32, ptr %6, align 4, !tbaa !27
  %50 = add nsw i32 %49, 1
  store i32 %50, ptr %6, align 4, !tbaa !27
  br label %19, !llvm.loop !187

51:                                               ; preds = %30
  call void @llvm.lifetime.end.p0(i64 4, ptr %6) #15
  call void @llvm.lifetime.end.p0(i64 8, ptr %5) #15
  ret void
}