; Function Attrs: nounwind uwtable
define void @If_DsdManInvertMarks(ptr noundef captures(none) %0, i32 noundef %1) local_unnamed_addr #4 {
  %3 = getelementptr inbounds nuw i8, ptr %0, i64 664
  %4 = load ptr, ptr %3, align 8, !tbaa !32
  %.not = icmp eq ptr %4, null
  br i1 %.not, label %6, label %5

5:                                                ; preds = %2
  tail call void @free(ptr noundef nonnull %4) #39
  store ptr null, ptr %3, align 8, !tbaa !32
  br label %6

6:                                                ; preds = %2, %5
  %7 = getelementptr i8, ptr %0, i64 44
  %.val12 = load i32, ptr %7, align 4, !tbaa !20
  %8 = icmp sgt i32 %.val12, 0
  br i1 %8, label %.lr.ph, label %.critedge

.lr.ph:                                           ; preds = %6
  %9 = getelementptr i8, ptr %0, i64 48
  br label %10

10:                                               ; preds = %.lr.ph, %10
  %indvars.iv = phi i64 [ 0, %.lr.ph ], [ %indvars.iv.next, %10 ]
  %.val11 = load ptr, ptr %9, align 8, !tbaa !23
  %11 = getelementptr inbounds nuw ptr, ptr %.val11, i64 %indvars.iv
  %12 = load ptr, ptr %11, align 8, !tbaa !24
  %13 = getelementptr inbounds nuw i8, ptr %12, i64 4
  %14 = load i32, ptr %13, align 4
  %15 = xor i32 %14, 256
  store i32 %15, ptr %13, align 4
  %indvars.iv.next = add nuw nsw i64 %indvars.iv, 1
  %.val = load i32, ptr %7, align 4, !tbaa !20
  %16 = sext i32 %.val to i64
  %17 = icmp slt i64 %indvars.iv.next, %16
  br i1 %17, label %10, label %.critedge, !llvm.loop !189

.critedge:                                        ; preds = %10, %6
  ret void
}